target datalayout = "e-m:e-p270:32:32-p271:32:32-p272:64:64-i64:64-i128:128-f80:128-n8:16:32:64-S128"
target triple = "x86_64-pc-linux-gnu"

%struct.SlruSharedData = type { i32, ptr, ptr, ptr, ptr, ptr, ptr, ptr, ptr, ptr, i32, %struct.pg_atomic_uint64, i32 }
%struct.pg_atomic_uint64 = type { i64 }
%struct.SlruCtlData = type { ptr, i16, i8, i32, ptr, [64 x i8] }

; Function Attrs: inlinehint nounwind uwtable
define internal void @pg_atomic_write_u64_impl(ptr noundef %0, i64 noundef %1) #4 {
  %3 = alloca ptr, align 8
  %4 = alloca i64, align 8
  store ptr %0, ptr %3, align 8
  store i64 %1, ptr %4, align 8
  %5 = load i64, ptr %4, align 8
  %6 = load ptr, ptr %3, align 8
  %7 = getelementptr inbounds nuw %struct.pg_atomic_uint64, ptr %6, i32 0, i32 0
  store volatile i64 %5, ptr %7, align 8
  ret void
}

; Function Attrs: inlinehint nounwind uwtable
define internal void @pg_atomic_write_u64(ptr noundef %0, i64 noundef %1) #4 {
  %3 = alloca ptr, align 8
  %4 = alloca i64, align 8
  store ptr %0, ptr %3, align 8
  store i64 %1, ptr %4, align 8
  %5 = load ptr, ptr %3, align 8
  %6 = load i64, ptr %4, align 8
  call void @pg_atomic_write_u64_impl(ptr noundef %5, i64 noundef %6)
  ret void
}

; Function Attrs: nounwind uwtable
define internal void @SimpleLruZeroLSNs(ptr noundef %0, i32 noundef %1) #0 {
  %3 = alloca ptr, align 8
  %4 = alloca i32, align 4
  %5 = alloca ptr, align 8
  %6 = alloca ptr, align 8
  %7 = alloca i32, align 4
  %8 = alloca i64, align 8
  %9 = alloca ptr, align 8
  %10 = alloca ptr, align 8
  store ptr %0, ptr %3, align 8
  store i32 %1, ptr %4, align 4
  call void @llvm.lifetime.start.p0(i64 8, ptr %5) #9
  %11 = load ptr, ptr %3, align 8
  %12 = getelementptr inbounds nuw %struct.SlruCtlData, ptr %11, i32 0, i32 0
  %13 = load ptr, ptr %12, align 8
  store ptr %13, ptr %5, align 8
  %14 = load ptr, ptr %5, align 8
  %15 = getelementptr inbounds nuw %struct.SlruSharedData, ptr %14, i32 0, i32 10
  %16 = load i32, ptr %15, align 8
  %17 = icmp sgt i32 %16, 0
  br i1 %17, label %18, label %70

18:                                               ; preds = %2
  br label %19

19:                                               ; preds = %18
  call void @llvm.lifetime.start.p0(i64 8, ptr %6) #9
  %20 = load ptr, ptr %5, align 8
  %21 = getelementptr inbounds nuw %struct.SlruSharedData, ptr %20, i32 0, i32 9
  %22 = load ptr, ptr %21, align 8
  %23 = load i32, ptr %4, align 4
  %24 = load ptr, ptr %5, align 8
  %25 = getelementptr inbounds nuw %struct.SlruSharedData, ptr %24, i32 0, i32 10
  %26 = load i32, ptr %25, align 8
  %27 = mul i32 %23, %26
  %28 = sext i32 %27 to i64
  %29 = getelementptr inbounds i64, ptr %22, i64 %28
  store ptr %29, ptr %6, align 8
  call void @llvm.lifetime.start.p0(i64 4, ptr %7) #9
  store i32 0, ptr %7, align 4
  call void @llvm.lifetime.start.p0(i64 8, ptr %8) #9
  %30 = load ptr, ptr %5, align 8
  %31 = getelementptr inbounds nuw %struct.SlruSharedData, ptr %30, i32 0, i32 10
  %32 = load i32, ptr %31, align 8
  %33 = sext i32 %32 to i64
  %34 = mul i64 %33, 8
  store i64 %34, ptr %8, align 8
  %35 = load ptr, ptr %6, align 8
  %36 = ptrtoint ptr %35 to i64
  %37 = and i64 %36, 7
  %38 = icmp eq i64 %37, 0
  br i1 %38, label %39, label %62

39:                                               ; preds = %19
  %40 = load i64, ptr %8, align 8
  %41 = and i64 %40, 7
  %42 = icmp eq i64 %41, 0
  br i1 %42, label %43, label %62

43:                                               ; preds = %39
  %44 = load i32, ptr %7, align 4
  %45 = icmp eq i32 %44, 0
  br i1 %45, label %46, label %62

46:                                               ; preds = %43
  %47 = load i64, ptr %8, align 8
  %48 = icmp ule i64 %47, 1024
  br i1 %48, label %49, label %62

49:                                               ; preds = %46
  call void @llvm.lifetime.start.p0(i64 8, ptr %9) #9
  %50 = load ptr, ptr %6, align 8
  store ptr %50, ptr %9, align 8
  call void @llvm.lifetime.start.p0(i64 8, ptr %10) #9
  %51 = load ptr, ptr %9, align 8
  %52 = load i64, ptr %8, align 8
  %53 = getelementptr inbounds nuw i8, ptr %51, i64 %52
  store ptr %53, ptr %10, align 8
  br label %54

54:                                               ; preds = %58, %49
  %55 = load ptr, ptr %9, align 8
  %56 = load ptr, ptr %10, align 8
  %57 = icmp ult ptr %55, %56
  br i1 %57, label %58, label %61

58:                                               ; preds = %54
  %59 = load ptr, ptr %9, align 8
  %60 = getelementptr inbounds nuw i64, ptr %59, i32 1
  store ptr %60, ptr %9, align 8
  store i64 0, ptr %59, align 8
  br label %54, !llvm.loop !12

61:                                               ; preds = %54
  call void @llvm.lifetime.end.p0(i64 8, ptr %10) #9
  call void @llvm.lifetime.end.p0(i64 8, ptr %9) #9
  br label %67

62:                                               ; preds = %46, %43, %39, %19
  %63 = load ptr, ptr %6, align 8
  %64 = load i32, ptr %7, align 4
  %65 = trunc i32 %64 to i8
  %66 = load i64, ptr %8, align 8
  call void @llvm.memset.p0.i64(ptr align 1 %63, i8 %65, i64 %66, i1 false)
  br label %67

67:                                               ; preds = %62, %61
  call void @llvm.lifetime.end.p0(i64 8, ptr %8) #9
  call void @llvm.lifetime.end.p0(i64 4, ptr %7) #9
  call void @llvm.lifetime.end.p0(i64 8, ptr %6) #9
  br label %68

68:                                               ; preds = %67
  br label %69

69:                                               ; preds = %68
  br label %70

70:                                               ; preds = %69, %2
  call void @llvm.lifetime.end.p0(i64 8, ptr %5) #9
  ret void
}

; Function Attrs: inlinehint nounwind uwtable
define internal void @SlruRecentlyUsed(ptr noundef %0, i32 noundef %1) #4 {
  %3 = alloca ptr, align 8
  %4 = alloca i32, align 4
  %5 = alloca i32, align 4
  %6 = alloca i32, align 4
  store ptr %0, ptr %3, align 8
  store i32 %1, ptr %4, align 4
  call void @llvm.lifetime.start.p0(i64 4, ptr %5) #9
  %7 = load i32, ptr %4, align 4
  %8 = ashr i32 %7, 4
  store i32 %8, ptr %5, align 4
  call void @llvm.lifetime.start.p0(i64 4, ptr %6) #9
  %9 = load ptr, ptr %3, align 8
  %10 = getelementptr inbounds nuw %struct.SlruSharedData, ptr %9, i32 0, i32 8
  %11 = load ptr, ptr %10, align 8
  %12 = load i32, ptr %5, align 4
  %13 = sext i32 %12 to i64
  %14 = getelementptr inbounds i32, ptr %11, i64 %13
  %15 = load i32, ptr %14, align 4
  store i32 %15, ptr %6, align 4
  %16 = load i32, ptr %6, align 4
  %17 = load ptr, ptr %3, align 8
  %18 = getelementptr inbounds nuw %struct.SlruSharedData, ptr %17, i32 0, i32 5
  %19 = load ptr, ptr %18, align 8
  %20 = load i32, ptr %4, align 4
  %21 = sext i32 %20 to i64
  %22 = getelementptr inbounds i32, ptr %19, i64 %21
  %23 = load i32, ptr %22, align 4
  %24 = icmp ne i32 %16, %23
  br i1 %24, label %25, label %41

25:                                               ; preds = %2
  %26 = load i32, ptr %6, align 4
  %27 = add i32 %26, 1
  store i32 %27, ptr %6, align 4
  %28 = load ptr, ptr %3, align 8
  %29 = getelementptr inbounds nuw %struct.SlruSharedData, ptr %28, i32 0, i32 8
  %30 = load ptr, ptr %29, align 8
  %31 = load i32, ptr %5, align 4
  %32 = sext i32 %31 to i64
  %33 = getelementptr inbounds i32, ptr %30, i64 %32
  store i32 %27, ptr %33, align 4
  %34 = load i32, ptr %6, align 4
  %35 = load ptr, ptr %3, align 8
  %36 = getelementptr inbounds nuw %struct.SlruSharedData, ptr %35, i32 0, i32 5
  %37 = load ptr, ptr %36, align 8
  %38 = load i32, ptr %4, align 4
  %39 = sext i32 %38 to i64
  %40 = getelementptr inbounds i32, ptr %37, i64 %39
  store i32 %34, ptr %40, align 4
  br label %41

41:                                               ; preds = %25, %2
  call void @llvm.lifetime.end.p0(i64 4, ptr %6) #9
  call void @llvm.lifetime.end.p0(i64 4, ptr %5) #9
  ret void
}

; Function Attrs: nounwind uwtable
define dso_local i32 @SimpleLruZeroPage(ptr noundef %0, i64 noundef %1) #0 {
  %3 = alloca ptr, align 8
  %4 = alloca i64, align 8
  %5 = alloca ptr, align 8
  %6 = alloca i32, align 4
  %7 = alloca ptr, align 8
  %8 = alloca i32, align 4
  %9 = alloca i64, align 8
  %10 = alloca ptr, align 8
  %11 = alloca ptr, align 8
  store ptr %0, ptr %3, align 8
  store i64 %1, ptr %4, align 8
  call void @llvm.lifetime.start.p0(i64 8, ptr %5) #9
  %12 = load ptr, ptr %3, align 8
  %13 = getelementptr inbounds nuw %struct.SlruCtlData, ptr %12, i32 0, i32 0
  %14 = load ptr, ptr %13, align 8
  store ptr %14, ptr %5, align 8
  call void @llvm.lifetime.start.p0(i64 4, ptr %6) #9
  %15 = load ptr, ptr %3, align 8
  %16 = load i64, ptr %4, align 8
  %17 = call i32 @SlruSelectLRUPage(ptr noundef %15, i64 noundef %16)
  store i32 %17, ptr %6, align 4
  %18 = load i64, ptr %4, align 8
  %19 = load ptr, ptr %5, align 8
  %20 = getelementptr inbounds nuw %struct.SlruSharedData, ptr %19, i32 0, i32 4
  %21 = load ptr, ptr %20, align 8
  %22 = load i32, ptr %6, align 4
  %23 = sext i32 %22 to i64
  %24 = getelementptr inbounds i64, ptr %21, i64 %23
  store i64 %18, ptr %24, align 8
  %25 = load ptr, ptr %5, align 8
  %26 = getelementptr inbounds nuw %struct.SlruSharedData, ptr %25, i32 0, i32 2
  %27 = load ptr, ptr %26, align 8
  %28 = load i32, ptr %6, align 4
  %29 = sext i32 %28 to i64
  %30 = getelementptr inbounds i32, ptr %27, i64 %29
  store i32 2, ptr %30, align 4
  %31 = load ptr, ptr %5, align 8
  %32 = getelementptr inbounds nuw %struct.SlruSharedData, ptr %31, i32 0, i32 3
  %33 = load ptr, ptr %32, align 8
  %34 = load i32, ptr %6, align 4
  %35 = sext i32 %34 to i64
  %36 = getelementptr inbounds i8, ptr %33, i64 %35
  store i8 1, ptr %36, align 1
  %37 = load ptr, ptr %5, align 8
  %38 = load i32, ptr %6, align 4
  call void @SlruRecentlyUsed(ptr noundef %37, i32 noundef %38)
  br label %39

39:                                               ; preds = %2
  call void @llvm.lifetime.start.p0(i64 8, ptr %7) #9
  %40 = load ptr, ptr %5, align 8
  %41 = getelementptr inbounds nuw %struct.SlruSharedData, ptr %40, i32 0, i32 1
  %42 = load ptr, ptr %41, align 8
  %43 = load i32, ptr %6, align 4
  %44 = sext i32 %43 to i64
  %45 = getelementptr inbounds ptr, ptr %42, i64 %44
  %46 = load ptr, ptr %45, align 8
  store ptr %46, ptr %7, align 8
  call void @llvm.lifetime.start.p0(i64 4, ptr %8) #9
  store i32 0, ptr %8, align 4
  call void @llvm.lifetime.start.p0(i64 8, ptr %9) #9
  store i64 8192, ptr %9, align 8
  %47 = load ptr, ptr %7, align 8
  %48 = ptrtoint ptr %47 to i64
  %49 = and i64 %48, 7
  %50 = icmp eq i64 %49, 0
  br i1 %50, label %51, label %74

51:                                               ; preds = %39
  %52 = load i64, ptr %9, align 8
  %53 = and i64 %52, 7
  %54 = icmp eq i64 %53, 0
  br i1 %54, label %55, label %74

55:                                               ; preds = %51
  %56 = load i32, ptr %8, align 4
  %57 = icmp eq i32 %56, 0
  br i1 %57, label %58, label %74

58:                                               ; preds = %55
  %59 = load i64, ptr %9, align 8
  %60 = icmp ule i64 %59, 1024
  br i1 %60, label %61, label %74

61:                                               ; preds = %58
  call void @llvm.lifetime.start.p0(i64 8, ptr %10) #9
  %62 = load ptr, ptr %7, align 8
  store ptr %62, ptr %10, align 8
  call void @llvm.lifetime.start.p0(i64 8, ptr %11) #9
  %63 = load ptr, ptr %10, align 8
  %64 = load i64, ptr %9, align 8
  %65 = getelementptr inbounds nuw i8, ptr %63, i64 %64
  store ptr %65, ptr %11, align 8
  br label %66

66:                                               ; preds = %70, %61
  %67 = load ptr, ptr %10, align 8
  %68 = load ptr, ptr %11, align 8
  %69 = icmp ult ptr %67, %68
  br i1 %69, label %70, label %73

70:                                               ; preds = %66
  %71 = load ptr, ptr %10, align 8
  %72 = getelementptr inbounds nuw i64, ptr %71, i32 1
  store ptr %72, ptr %10, align 8
  store i64 0, ptr %71, align 8
  br label %66, !llvm.loop !9

73:                                               ; preds = %66
  call void @llvm.lifetime.end.p0(i64 8, ptr %11) #9
  call void @llvm.lifetime.end.p0(i64 8, ptr %10) #9
  br label %79

74:                                               ; preds = %58, %55, %51, %39
  %75 = load ptr, ptr %7, align 8
  %76 = load i32, ptr %8, align 4
  %77 = trunc i32 %76 to i8
  %78 = load i64, ptr %9, align 8
  call void @llvm.memset.p0.i64(ptr align 1 %75, i8 %77, i64 %78, i1 false)
  br label %79

79:                                               ; preds = %74, %73
  call void @llvm.lifetime.end.p0(i64 8, ptr %9) #9
  call void @llvm.lifetime.end.p0(i64 4, ptr %8) #9
  call void @llvm.lifetime.end.p0(i64 8, ptr %7) #9
  br label %80

80:                                               ; preds = %79
  br label %81

81:                                               ; preds = %80
  %82 = load ptr, ptr %3, align 8
  %83 = load i32, ptr %6, align 4
  call void @SimpleLruZeroLSNs(ptr noundef %82, i32 noundef %83)
  %84 = load ptr, ptr %5, align 8
  %85 = getelementptr inbounds nuw %struct.SlruSharedData, ptr %84, i32 0, i32 11
  %86 = load i64, ptr %4, align 8
  call void @pg_atomic_write_u64(ptr noundef %85, i64 noundef %86)
  %87 = load ptr, ptr %5, align 8
  %88 = getelementptr inbounds nuw %struct.SlruSharedData, ptr %87, i32 0, i32 12
  %89 = load i32, ptr %88, align 8
  call void @pgstat_count_slru_page_zeroed(i32 noundef %89)
  %90 = load i32, ptr %6, align 4
  call void @llvm.lifetime.end.p0(i64 4, ptr %6) #9
  call void @llvm.lifetime.end.p0(i64 8, ptr %5) #9
  ret i32 %90
}