; Function Attrs: nounwind uwtable
define dso_local i32 @SimpleLruZeroPage(ptr noundef %0, i64 noundef %1) local_unnamed_addr #3 {
  %3 = load ptr, ptr %0, align 8
  %4 = tail call fastcc i32 @SlruSelectLRUPage(ptr noundef nonnull %0, i64 noundef %1)
  %5 = getelementptr inbounds nuw i8, ptr %3, i64 32
  %6 = load ptr, ptr %5, align 8
  %7 = sext i32 %4 to i64
  %8 = getelementptr inbounds i64, ptr %6, i64 %7
  store i64 %1, ptr %8, align 8
  %9 = getelementptr inbounds nuw i8, ptr %3, i64 16
  %10 = load ptr, ptr %9, align 8
  %11 = getelementptr inbounds i32, ptr %10, i64 %7
  store i32 2, ptr %11, align 4
  %12 = getelementptr inbounds nuw i8, ptr %3, i64 24
  %13 = load ptr, ptr %12, align 8
  %14 = getelementptr inbounds i8, ptr %13, i64 %7
  store i8 1, ptr %14, align 1
  %15 = ashr i32 %4, 4
  %16 = getelementptr inbounds nuw i8, ptr %3, i64 64
  %17 = load ptr, ptr %16, align 8
  %18 = sext i32 %15 to i64
  %19 = getelementptr inbounds i32, ptr %17, i64 %18
  %20 = load i32, ptr %19, align 4
  %21 = getelementptr inbounds nuw i8, ptr %3, i64 40
  %22 = load ptr, ptr %21, align 8
  %23 = getelementptr inbounds i32, ptr %22, i64 %7
  %24 = load i32, ptr %23, align 4
  %.not.i = icmp eq i32 %20, %24
  br i1 %.not.i, label %SlruRecentlyUsed.exit, label %25

25:                                               ; preds = %2
  %26 = add i32 %20, 1
  store i32 %26, ptr %19, align 4
  %27 = load ptr, ptr %21, align 8
  %28 = getelementptr inbounds i32, ptr %27, i64 %7
  store i32 %26, ptr %28, align 4
  br label %SlruRecentlyUsed.exit

SlruRecentlyUsed.exit:                            ; preds = %2, %25
  %29 = getelementptr inbounds nuw i8, ptr %3, i64 8
  %30 = load ptr, ptr %29, align 8
  %31 = getelementptr inbounds ptr, ptr %30, i64 %7
  %32 = load ptr, ptr %31, align 8
  tail call void @llvm.memset.p0.i64(ptr noundef nonnull align 1 dereferenceable(8192) %32, i8 0, i64 8192, i1 false)
  %.val = load ptr, ptr %0, align 8
  %33 = getelementptr inbounds nuw i8, ptr %.val, i64 80
  %34 = load i32, ptr %33, align 8
  %35 = icmp sgt i32 %34, 0
  br i1 %35, label %36, label %SimpleLruZeroLSNs.exit

36:                                               ; preds = %SlruRecentlyUsed.exit
  %37 = getelementptr inbounds nuw i8, ptr %.val, i64 72
  %38 = load ptr, ptr %37, align 8
  %39 = mul i32 %34, %4
  %40 = sext i32 %39 to i64
  %41 = getelementptr inbounds i64, ptr %38, i64 %40
  %42 = zext nneg i32 %34 to i64
  %43 = shl nuw nsw i64 %42, 3
  %44 = ptrtoint ptr %41 to i64
  %45 = and i64 %44, 7
  %46 = icmp eq i64 %45, 0
  %47 = icmp samesign ult i32 %34, 129
  %or.cond.i = and i1 %47, %46
  br i1 %or.cond.i, label %.lr.ph.preheader.i, label %SimpleLruZeroLSNs.exit.sink.split

.lr.ph.preheader.i:                               ; preds = %36
  %48 = ptrtoint ptr %38 to i64
  %49 = shl nsw i64 %40, 3
  %50 = add i64 %49, %48
  %51 = add i64 %50, %43
  %52 = add i64 %50, 8
  %umax.i = tail call i64 @llvm.umax.i64(i64 %51, i64 %52)
  %53 = xor i64 %48, -1
  %54 = sub i64 %53, %49
  %55 = add i64 %54, %umax.i
  %56 = and i64 %55, -8
  %57 = add i64 %56, 8
  br label %SimpleLruZeroLSNs.exit.sink.split

SimpleLruZeroLSNs.exit.sink.split:                ; preds = %36, %.lr.ph.preheader.i
  %.sink = phi i64 [ %57, %.lr.ph.preheader.i ], [ %43, %36 ]
  tail call void @llvm.memset.p0.i64(ptr align 1 %41, i8 0, i64 %.sink, i1 false)
  br label %SimpleLruZeroLSNs.exit

SimpleLruZeroLSNs.exit:                           ; preds = %SimpleLruZeroLSNs.exit.sink.split, %SlruRecentlyUsed.exit
  %58 = getelementptr inbounds nuw i8, ptr %3, i64 88
  store volatile i64 %1, ptr %58, align 8
  %59 = getelementptr inbounds nuw i8, ptr %3, i64 96
  %60 = load i32, ptr %59, align 8
  tail call void @pgstat_count_slru_page_zeroed(i32 noundef %60) #15
  ret i32 %4
}